target datalayout = "e-m:e-p270:32:32-p271:32:32-p272:64:64-i64:64-i128:128-f80:128-n8:16:32:64-S128"
target triple = "x86_64-pc-linux-gnu"

%struct.GetOneObjectData = type { i32, ptr, i32, i32 }

; Function Attrs: nounwind uwtable
define internal zeroext i1 @GetOneObject(ptr noundef %0, ptr noundef %1, ptr noundef %2, ptr noundef %3) #0 {
  %5 = alloca ptr, align 8
  %6 = alloca ptr, align 8
  %7 = alloca ptr, align 8
  %8 = alloca ptr, align 8
  %9 = alloca ptr, align 8
  store ptr %0, ptr %5, align 8
  store ptr %1, ptr %6, align 8
  store ptr %2, ptr %7, align 8
  store ptr %3, ptr %8, align 8
  call void @llvm.lifetime.start.p0(i64 8, ptr %9) #6
  %10 = load ptr, ptr %5, align 8
  store ptr %10, ptr %9, align 8
  %11 = load ptr, ptr %8, align 8
  %12 = ptrtoint ptr %11 to i64
  %13 = trunc i64 %12 to i32
  %14 = load ptr, ptr %9, align 8
  %15 = getelementptr inbounds nuw %struct.GetOneObjectData, ptr %14, i32 0, i32 0
  %16 = load i32, ptr %15, align 8
  %17 = icmp eq i32 %13, %16
  br i1 %17, label %18, label %41

18:                                               ; preds = %4
  %19 = load ptr, ptr %9, align 8
  %20 = getelementptr inbounds nuw %struct.GetOneObjectData, ptr %19, i32 0, i32 3
  %21 = load i32, ptr %20, align 4
  %22 = load ptr, ptr %9, align 8
  %23 = getelementptr inbounds nuw %struct.GetOneObjectData, ptr %22, i32 0, i32 2
  %24 = load i32, ptr %23, align 8
  %25 = icmp slt i32 %21, %24
  br i1 %25, label %26, label %36

26:                                               ; preds = %18
  %27 = load ptr, ptr %7, align 8
  %28 = load ptr, ptr %9, align 8
  %29 = getelementptr inbounds nuw %struct.GetOneObjectData, ptr %28, i32 0, i32 1
  %30 = load ptr, ptr %29, align 8
  %31 = load ptr, ptr %9, align 8
  %32 = getelementptr inbounds nuw %struct.GetOneObjectData, ptr %31, i32 0, i32 3
  %33 = load i32, ptr %32, align 4
  %34 = sext i32 %33 to i64
  %35 = getelementptr inbounds ptr, ptr %30, i64 %34
  store ptr %27, ptr %35, align 8
  br label %36

36:                                               ; preds = %26, %18
  %37 = load ptr, ptr %9, align 8
  %38 = getelementptr inbounds nuw %struct.GetOneObjectData, ptr %37, i32 0, i32 3
  %39 = load i32, ptr %38, align 4
  %40 = add nsw i32 %39, 1
  store i32 %40, ptr %38, align 4
  br label %41

41:                                               ; preds = %36, %4
  call void @llvm.lifetime.end.p0(i64 8, ptr %9) #6
  ret i1 true
}