; Function Attrs: mustprogress nofree norecurse nosync nounwind willreturn memory(write, argmem: readwrite, inaccessiblemem: none) uwtable
define internal noundef zeroext i1 @GetOneObject(ptr noundef captures(none) %0, ptr readnone captures(none) %1, ptr noundef %2, ptr noundef %3) #6 {
  %5 = ptrtoint ptr %3 to i64
  %6 = trunc i64 %5 to i32
  %7 = load i32, ptr %0, align 8
  %8 = icmp eq i32 %7, %6
  br i1 %8, label %9, label %23

9:                                                ; preds = %4
  %10 = getelementptr inbounds nuw i8, ptr %0, i64 20
  %11 = load i32, ptr %10, align 4
  %12 = getelementptr inbounds nuw i8, ptr %0, i64 16
  %13 = load i32, ptr %12, align 8
  %14 = icmp slt i32 %11, %13
  br i1 %14, label %15, label %20

15:                                               ; preds = %9
  %16 = getelementptr inbounds nuw i8, ptr %0, i64 8
  %17 = load ptr, ptr %16, align 8
  %18 = sext i32 %11 to i64
  %19 = getelementptr inbounds ptr, ptr %17, i64 %18
  store ptr %2, ptr %19, align 8
  %.pre = load i32, ptr %10, align 4
  br label %20

20:                                               ; preds = %15, %9
  %21 = phi i32 [ %.pre, %15 ], [ %11, %9 ]
  %22 = add nsw i32 %21, 1
  store i32 %22, ptr %10, align 4
  br label %23

23:                                               ; preds = %20, %4
  ret i1 true
}